(dp1
S'output'
p2
S"<type 'exceptions.AttributeError'> 'long' object has no attribute 'application'"
p3
sS'layer'
p4
S'/usr/local/web2py/applications/myapp/views/default/project_tablebar_setting.html'
p5
sS'code'
p6
S'response.write(\'<!DOCTYPE html PUBLIC "-//W3C//DTD XHTML 1.0 Transitional//EN" "http://www.w3.org/TR/xhtml1/DTD/xhtml1-transitional.dtd">\\n<html xmlns="http://www.w3.org/1999/xhtml">\\n <head>\\n  <title>\\n   \', escape=False)\nresponse.write(response.title or request.application)\nresponse.write(\'\\n  </title>\\n \', escape=False)\nresponse.files.append(URL(request.application,\'static\',\'plugin_layouts/layouts/KeepitSimple/css/style.css\'))\nresponse.write(\'\\n  \', escape=False)\nresponse.files.append(URL(\'static\',\'plugin_layouts/superfish.js\'))\nresponse.write(\'\\n  \', escape=False)\nresponse.write(\'<script type="text/javascript"><!--\\n    // These variables are used by the web2py_ajax_init function in web2py_ajax.js (which is loaded below).\\n    var w2p_ajax_confirm_message = "\', escape=False)\nresponse.write(T(\'Are you sure you want to delete this object?\'))\nresponse.write(\'";\\n    var w2p_ajax_disable_with_message = "\', escape=False)\nresponse.write(T(\'Working...\'))\nresponse.write(\'";\\n    var w2p_ajax_date_format = "\', escape=False)\nresponse.write(T(\'%Y-%m-%d\'))\nresponse.write(\'";\\n    var w2p_ajax_datetime_format = "\', escape=False)\nresponse.write(T(\'%Y-%m-%d %H:%M:%S\'))\nresponse.write(\'";\\n    var ajax_error_500 = \\\'\', escape=False)\nresponse.write(T.M(\'An error occured, please [[reload %s]] the page\') % URL(args=request.args, vars=request.get_vars))\nresponse.write("\'\\n    //--></script>\\n", escape=False)\nresponse.files.insert(0,URL(\'static\',\'js/jquery.js\'))\nresponse.files.insert(1,URL(\'static\',\'css/calendar.css\'))\nresponse.files.insert(2,URL(\'static\',\'js/calendar.js\'))\nresponse.files.insert(3,URL(\'static\',\'js/web2py.js\'))\nresponse.include_meta()\nresponse.include_files()\nresponse.write(\'\\n\', escape=False)\nresponse.write(\'\\n  <style>\\nul.web2py-menu-vertical { width: 150px; position: relative; top:1em; left:1em;  z-index:30; border:0; margin:0; padding: 0; list-style: none; text-decoration: none;}\\nul.web2py-menu-vertical li { margin:0; padding:0; border:0; width: 150px; background: black; text-align:right;}\\nul.web2py-menu-vertical li a { margin:0; padding: 1px 3px 1px 3px; border:0; width: 144px; color: white; font-size:12px;}\\ndiv.flash { position: fixed; float: right; padding: 10px; top: 10px; right: 30px; opacity: 0.75; margin: 10px 10px 10px 10px; text-align: center; clear: both; color: #fff; font-size: 11pt; text-align: center; vertical-align: middle; cursor: pointer; background: black; border: 2px solid #fff; -moz-border-radius: 5px; -webkit-border-radius: 5px; z-index: 2; }\\ndiv.error { background-color: red; color: white; padding: 3px; }\\n.auth_navbar { text-align:right; z-index:20; position: absolute; top: 2px; right:30px; border:0; padding:0 }\\n  </style>\\n </head>\\n <body>\\n  <!-- start header -->\\n  \', escape=False)\ntry:\n    response.write(auth.navbar(action=URL(\'default\',\'user\')))\nexcept:pass\nresponse.write(\'\\n\\n  <div id="container">\\n   <div id="header">\\n    <a href="#">\\n     ChanMin\\\'s Blog\\n    </a>\\n   </div>\\n   <div id="menu">\\n       <a href=\', escape=False)\nresponse.write(URL(\'myapp\', \'default\', \'index\'))\nresponse.write(\'>HOME</a> &nbsp; &nbsp; &nbsp; &nbsp; <a href=\', escape=False)\nresponse.write(URL(\'myapp\', \'default\', \'profile\'))\nresponse.write(\'>Profile</a>\\n    <script>\\n      jQuery(document).ready(function(){jQuery(\\\'ul.web2py-menu\\\').superfish({delay:400});});\\n    </script>\\n   </div>\\n   <!--\\n   <div id="sidebar">\\n    <h1>\\n     \', escape=False)\nresponse.write(response.title or request.application)\nresponse.write(\'\\n    </h1>\\n   </div>\\n   -->\\n   <div id="main">\\n    <div class="flash">\', escape=False)\nresponse.write(response.flash or \'\')\nresponse.write(\'</div>\\n    \', escape=False)\nresponse.write(\'\\n<html>\\n    <head>\\n    </head>\\n    <body>\\n        <H3>Table Bar Setting Page.</H3><br><br>\\n        You can set a location and add your schedules.<br>\\n        Also, you can set alarm for schedule.<br><br>\\n        <br>\\n        <B>[\\xec\\x9d\\xbc\\xec\\xa0\\x95 \\xec\\xb6\\x94\\xea\\xb0\\x80 \\xed\\x95\\x98\\xea\\xb8\\xb0]</B><br>\\n        \', escape=False)\nresponse.write(form.custom.begin)\nresponse.write(\'\\n        \\xeb\\x82\\xa0\\xec\\xa7\\x9c : \', escape=False)\nresponse.write(form.custom.widget.date)\nresponse.write(\'<br><br>\\n        \\xec\\x9e\\xa5\\xec\\x86\\x8c : \', escape=False)\nresponse.write(form.custom.widget.location)\nresponse.write(\'<br><br>\\n        \\xec\\x9d\\xbc\\xec\\xa0\\x95 : \', escape=False)\nresponse.write(form.custom.widget.content)\nresponse.write(\'<br><br>\\n        \\xec\\x95\\x8c\\xeb\\x9e\\x8c : \', escape=False)\nresponse.write(form.custom.widget.isAlarm)\nresponse.write(\'<br><br>\\n        \', escape=False)\nresponse.write(form.custom.submit)\nresponse.write(\'\\n        \', escape=False)\nresponse.write(form.custom.end)\nresponse.write(\'\\n        <br>\\n        <br>\\n        <H4>[ Schedule List ]</H4><br>\\n        <Table border=1>\\n            <th width=180 align="center">\', escape=False)\nresponse.write(T("\xec\x8b\x9c\xea\xb0\x84"))\nresponse.write(\'</th>\\n            <th width=300 align="center">\', escape=False)\nresponse.write(T("\xec\x9e\xa5\xec\x86\x8c"))\nresponse.write(\'</th>\\n            <th width=450 align="center">\', escape=False)\nresponse.write(T("\xec\x9d\xbc\xec\xa0\x95"))\nresponse.write(\'</th>\\n            <th width=50 align="center">\', escape=False)\nresponse.write(T("\xec\x95\x8c\xeb\xa6\xbc"))\nresponse.write(\'</th>\\n            \', escape=False)\nfor row in rows:\n    response.write(\'\\n            <tr>\\n                <td>\', escape=False)\n    response.write(row.date)\n    response.write(\'</td>\\n                <td>\', escape=False)\n    response.write(row.location)\n    response.write(\'</td>\\n                <td><a href=\', escape=False)\n    response.write(URL(\'myapp\',\'defualt\',\'project_tablebar_setting\',row.id))\n    response.write(\'>\', escape=False)\n    response.write(row.content)\n    response.write(\'</a></td>\\n                <td>\', escape=False)\n    response.write(row.isAlarm)\n    response.write(\'</td>\\n            </tr>\\n            \', escape=False)\n    pass\nresponse.write(\'\\n        </Table>\\n\\n    </body>\\n</html>\\n\', escape=False)\nresponse.write(\'\\n   </div>\\n   <div id="footer">\\n    &copy;2007 Keep it Simple &nbsp;\\n    <span class="separator">\\n     |\\n    </span>\\n    &nbsp; Design by\\n    <a href="http://www.realitysoftware.ca" title="Website Design">\\n     Reality Software\\n    </a>\\n   </div>\\n  </div>\\n </body>\\n</html>\\n\', escape=False)'
p7
sS'snapshot'
p8
(dp9
sS'traceback'
p10
S'Traceback (most recent call last):\n  File "/usr/local/web2py/gluon/restricted.py", line 227, in restricted\n    exec ccode in environment\n  File "/usr/local/web2py/applications/myapp/views/default/project_tablebar_setting.html", line 68, in <module>\n  File "/usr/local/web2py/gluon/html.py", line 287, in URL\n    application = r.application\nAttributeError: \'long\' object has no attribute \'application\'\n'
p11
s.